; Function Attrs: nounwind uwtable
define internal fastcc noundef zeroext i1 @coerceToInt(ptr noundef nonnull readonly captures(none) %0, ptr noundef nonnull writeonly captures(none) %1) unnamed_addr #0 {
  %3 = load i32, ptr %0, align 8
  switch i32 %3, label %18 [
    i32 2, label %4
    i32 3, label %7
    i32 0, label %valueTypeName.exit
    i32 1, label %16
    i32 4, label %17
  ]

4:                                                ; preds = %2
  %5 = getelementptr inbounds nuw i8, ptr %0, i64 8
  %6 = load i64, ptr %5, align 8
  store i64 %6, ptr %1, align 8
  br label %19

7:                                                ; preds = %2
  %8 = getelementptr inbounds nuw i8, ptr %0, i64 8
  %9 = load double, ptr %8, align 8
  %10 = tail call double @llvm.rint.f64(double %9)
  %11 = fcmp oge double %10, 0xC3E0000000000000
  %12 = fcmp olt double %10, 0x43E0000000000000
  %or.cond3 = and i1 %11, %12
  br i1 %or.cond3, label %14, label %13

13:                                               ; preds = %7
  tail call void (i32, i32, ptr, ...) @pg_log_generic(i32 noundef 4, i32 noundef 0, ptr noundef nonnull @.str.423, double noundef %10) #25
  br label %19

14:                                               ; preds = %7
  %15 = fptosi double %10 to i64
  store i64 %15, ptr %1, align 8
  br label %19

16:                                               ; preds = %2
  br label %valueTypeName.exit

17:                                               ; preds = %2
  br label %valueTypeName.exit

18:                                               ; preds = %2
  br label %valueTypeName.exit

valueTypeName.exit:                               ; preds = %2, %16, %17, %18
  %.0.i = phi ptr [ @.str.394, %16 ], [ @.str.404, %17 ], [ null, %18 ], [ @.str.234, %2 ]
  tail call void (i32, i32, ptr, ...) @pg_log_generic(i32 noundef 4, i32 noundef 0, ptr noundef nonnull @.str.424, ptr noundef %.0.i) #25
  br label %19

19:                                               ; preds = %13, %14, %valueTypeName.exit, %4
  %.0 = phi i1 [ true, %4 ], [ false, %valueTypeName.exit ], [ true, %14 ], [ false, %13 ]
  ret i1 %.0
}